; Function Attrs: mustprogress uwtable
define internal void @_ZN12_GLOBAL__N_113tactic2solver9push_coreEv(ptr noundef nonnull align 8 dereferenceable(225) initializes((152, 156)) %0) unnamed_addr #3 align 2 {
  %2 = getelementptr inbounds nuw i8, ptr %0, i64 152
  store i32 0, ptr %2, align 8, !tbaa !14
  %3 = getelementptr inbounds nuw i8, ptr %0, i64 160
  %4 = getelementptr inbounds nuw i8, ptr %0, i64 128
  %5 = load ptr, ptr %4, align 8, !tbaa !10
  %6 = icmp eq ptr %5, null
  br i1 %6, label %_ZNK15ref_vector_coreI4expr19ref_manager_wrapperIS0_11ast_managerEE4sizeEv.exit, label %7

7:                                                ; preds = %1
  %8 = getelementptr inbounds i8, ptr %5, i64 -4
  %9 = load i32, ptr %8, align 4, !tbaa !68
  br label %_ZNK15ref_vector_coreI4expr19ref_manager_wrapperIS0_11ast_managerEE4sizeEv.exit

_ZNK15ref_vector_coreI4expr19ref_manager_wrapperIS0_11ast_managerEE4sizeEv.exit: ; preds = %1, %7
  %.0.i.i = phi i32 [ %9, %7 ], [ 0, %1 ]
  %10 = load ptr, ptr %3, align 8, !tbaa !67
  %11 = icmp eq ptr %10, null
  br i1 %11, label %18, label %12

12:                                               ; preds = %_ZNK15ref_vector_coreI4expr19ref_manager_wrapperIS0_11ast_managerEE4sizeEv.exit
  %13 = getelementptr inbounds i8, ptr %10, i64 -4
  %14 = load i32, ptr %13, align 4, !tbaa !68
  %15 = getelementptr inbounds i8, ptr %10, i64 -8
  %16 = load i32, ptr %15, align 4, !tbaa !68
  %17 = icmp eq i32 %14, %16
  br i1 %17, label %18, label %_ZN6vectorIjLb0EjE9push_backEOj.exit

18:                                               ; preds = %12, %_ZNK15ref_vector_coreI4expr19ref_manager_wrapperIS0_11ast_managerEE4sizeEv.exit
  tail call void @_ZN6vectorIjLb0EjE13expand_vectorEv(ptr noundef nonnull align 8 dereferenceable(8) %3)
  %.pre.i = load ptr, ptr %3, align 8, !tbaa !67
  %.phi.trans.insert.i = getelementptr inbounds i8, ptr %.pre.i, i64 -4
  %.pre2.i = load i32, ptr %.phi.trans.insert.i, align 4, !tbaa !68
  br label %_ZN6vectorIjLb0EjE9push_backEOj.exit

_ZN6vectorIjLb0EjE9push_backEOj.exit:             ; preds = %12, %18
  %19 = phi i32 [ %.pre2.i, %18 ], [ %14, %12 ]
  %20 = phi ptr [ %.pre.i, %18 ], [ %10, %12 ]
  %21 = getelementptr inbounds i8, ptr %20, i64 -4
  %22 = zext i32 %19 to i64
  %23 = getelementptr inbounds nuw i32, ptr %20, i64 %22
  store i32 %.0.i.i, ptr %23, align 4, !tbaa !68
  %24 = add i32 %19, 1
  store i32 %24, ptr %21, align 4, !tbaa !68
  %25 = getelementptr inbounds nuw i8, ptr %0, i64 168
  %26 = load ptr, ptr %25, align 8, !tbaa !65
  %.not.i.i = icmp eq ptr %26, null
  br i1 %.not.i.i, label %_ZN3refI23simple_check_sat_resultEaSEPS0_.exit, label %27

27:                                               ; preds = %_ZN6vectorIjLb0EjE9push_backEOj.exit
  %28 = getelementptr inbounds nuw i8, ptr %26, i64 48
  %29 = load i32, ptr %28, align 8, !tbaa !66
  %30 = add i32 %29, -1
  store i32 %30, ptr %28, align 8, !tbaa !66
  %31 = icmp eq i32 %30, 0
  br i1 %31, label %32, label %_ZN3refI23simple_check_sat_resultEaSEPS0_.exit

32:                                               ; preds = %27
  %33 = load ptr, ptr %26, align 8, !tbaa !3
  %34 = load ptr, ptr %33, align 8
  tail call void %34(ptr noundef nonnull align 8 dereferenceable(72) %26) #28
  tail call void @_ZN6memory10deallocateEPv(ptr noundef nonnull align 8 dereferenceable(72) %26)
  br label %_ZN3refI23simple_check_sat_resultEaSEPS0_.exit

_ZN3refI23simple_check_sat_resultEaSEPS0_.exit:   ; preds = %_ZN6vectorIjLb0EjE9push_backEOj.exit, %27, %32
  store ptr null, ptr %25, align 8, !tbaa !65
  ret void
}